target datalayout = "e-m:e-p270:32:32-p271:32:32-p272:64:64-i64:64-i128:128-f80:128-n8:16:32:64-S128"
target triple = "x86_64-pc-linux-gnu"

; Function Attrs: nounwind uwtable
define internal i32 @put_value(ptr noundef %0, i64 noundef %1, i64 noundef %2) #0 {
  %4 = alloca i32, align 4
  %5 = alloca ptr, align 8
  %6 = alloca i64, align 8
  %7 = alloca i64, align 8
  store ptr %0, ptr %5, align 8, !tbaa !25
  store i64 %1, ptr %6, align 8, !tbaa !9
  store i64 %2, ptr %7, align 8, !tbaa !9
  %8 = load ptr, ptr %5, align 8, !tbaa !25
  %9 = icmp eq ptr %8, null
  br i1 %9, label %10, label %11

10:                                               ; preds = %3
  store i32 1, ptr %4, align 4
  br label %36

11:                                               ; preds = %3
  %12 = load i64, ptr %7, align 8, !tbaa !9
  %13 = sub i64 %12, 1
  %14 = load ptr, ptr %5, align 8, !tbaa !25
  %15 = getelementptr inbounds nuw i8, ptr %14, i64 %13
  store ptr %15, ptr %5, align 8, !tbaa !25
  br label %16

16:                                               ; preds = %28, %11
  %17 = load i64, ptr %7, align 8, !tbaa !9
  %18 = icmp ugt i64 %17, 0
  br i1 %18, label %19, label %31

19:                                               ; preds = %16
  %20 = load i64, ptr %6, align 8, !tbaa !9
  %21 = and i64 %20, 255
  %22 = trunc i64 %21 to i8
  %23 = load ptr, ptr %5, align 8, !tbaa !25
  store i8 %22, ptr %23, align 1, !tbaa !40
  %24 = load ptr, ptr %5, align 8, !tbaa !25
  %25 = getelementptr inbounds i8, ptr %24, i32 -1
  store ptr %25, ptr %5, align 8, !tbaa !25
  %26 = load i64, ptr %6, align 8, !tbaa !9
  %27 = lshr i64 %26, 8
  store i64 %27, ptr %6, align 8, !tbaa !9
  br label %28

28:                                               ; preds = %19
  %29 = load i64, ptr %7, align 8, !tbaa !9
  %30 = add i64 %29, -1
  store i64 %30, ptr %7, align 8, !tbaa !9
  br label %16, !llvm.loop !41

31:                                               ; preds = %16
  %32 = load i64, ptr %6, align 8, !tbaa !9
  %33 = icmp ugt i64 %32, 0
  br i1 %33, label %34, label %35

34:                                               ; preds = %31
  store i32 0, ptr %4, align 4
  br label %36

35:                                               ; preds = %31
  store i32 1, ptr %4, align 4
  br label %36

36:                                               ; preds = %35, %34, %10
  %37 = load i32, ptr %4, align 4
  ret i32 %37
}

; Function Attrs: nounwind uwtable
define dso_local i32 @WPACKET_put_bytes__(ptr noundef %0, i64 noundef %1, i64 noundef %2) #0 {
  %4 = alloca i32, align 4
  %5 = alloca ptr, align 8
  %6 = alloca i64, align 8
  %7 = alloca i64, align 8
  %8 = alloca ptr, align 8
  %9 = alloca i32, align 4
  store ptr %0, ptr %5, align 8, !tbaa !4
  store i64 %1, ptr %6, align 8, !tbaa !9
  store i64 %2, ptr %7, align 8, !tbaa !9
  call void @llvm.lifetime.start.p0(i64 8, ptr %8) #7
  %10 = load i64, ptr %7, align 8, !tbaa !9
  %11 = icmp ule i64 %10, 8
  %12 = zext i1 %11 to i32
  %13 = icmp ne i32 %12, 0
  %14 = xor i1 %13, true
  %15 = xor i1 %14, true
  %16 = zext i1 %15 to i32
  %17 = sext i32 %16 to i64
  %18 = call i64 @llvm.expect.i64(i64 %17, i64 1)
  %19 = icmp ne i64 %18, 0
  br i1 %19, label %20, label %31

20:                                               ; preds = %3
  %21 = load ptr, ptr %5, align 8, !tbaa !4
  %22 = load i64, ptr %7, align 8, !tbaa !9
  %23 = call i32 @WPACKET_allocate_bytes(ptr noundef %21, i64 noundef %22, ptr noundef %8)
  %24 = icmp ne i32 %23, 0
  br i1 %24, label %25, label %31

25:                                               ; preds = %20
  %26 = load ptr, ptr %8, align 8, !tbaa !25
  %27 = load i64, ptr %6, align 8, !tbaa !9
  %28 = load i64, ptr %7, align 8, !tbaa !9
  %29 = call i32 @put_value(ptr noundef %26, i64 noundef %27, i64 noundef %28)
  %30 = icmp ne i32 %29, 0
  br i1 %30, label %32, label %31

31:                                               ; preds = %25, %20, %3
  store i32 0, ptr %4, align 4
  store i32 1, ptr %9, align 4
  br label %33

32:                                               ; preds = %25
  store i32 1, ptr %4, align 4
  store i32 1, ptr %9, align 4
  br label %33

33:                                               ; preds = %32, %31
  call void @llvm.lifetime.end.p0(i64 8, ptr %8) #7
  %34 = load i32, ptr %4, align 4
  ret i32 %34
}