; Function Attrs: nounwind uwtable
define dso_local range(i32 0, 2) i32 @WPACKET_put_bytes__(ptr noundef captures(none) %0, i64 noundef %1, i64 noundef %2) local_unnamed_addr #0 {
  %4 = alloca ptr, align 8
  call void @llvm.lifetime.start.p0(i64 8, ptr nonnull %4) #12
  %5 = icmp ult i64 %2, 9
  br i1 %5, label %6, label %put_value.exit.thread, !prof !14

6:                                                ; preds = %3
  %7 = call i32 @WPACKET_allocate_bytes(ptr noundef %0, i64 noundef %2, ptr noundef nonnull %4)
  %.not = icmp eq i32 %7, 0
  br i1 %.not, label %put_value.exit.thread, label %8

8:                                                ; preds = %6
  %9 = load ptr, ptr %4, align 8, !tbaa !23
  %10 = icmp eq ptr %9, null
  br i1 %10, label %put_value.exit.thread, label %11

11:                                               ; preds = %8
  %.not15.i = icmp eq i64 %2, 0
  br i1 %.not15.i, label %put_value.exit, label %.lr.ph.preheader.i

.lr.ph.preheader.i:                               ; preds = %11
  %12 = getelementptr i8, ptr %9, i64 %2
  br label %.lr.ph.i

.lr.ph.i:                                         ; preds = %.lr.ph.i, %.lr.ph.preheader.i
  %.018.i = phi i64 [ %15, %.lr.ph.i ], [ %2, %.lr.ph.preheader.i ]
  %.01017.i = phi i64 [ %14, %.lr.ph.i ], [ %1, %.lr.ph.preheader.i ]
  %.pn16.i = phi ptr [ %.011.i, %.lr.ph.i ], [ %12, %.lr.ph.preheader.i ]
  %.011.i = getelementptr i8, ptr %.pn16.i, i64 -1
  %13 = trunc i64 %.01017.i to i8
  store i8 %13, ptr %.011.i, align 1, !tbaa !33
  %14 = lshr i64 %.01017.i, 8
  %15 = add i64 %.018.i, -1
  %.not.i = icmp eq i64 %15, 0
  br i1 %.not.i, label %put_value.exit, label %.lr.ph.i, !llvm.loop !34

put_value.exit:                                   ; preds = %.lr.ph.i, %11
  %.010.lcssa.i = phi i64 [ %1, %11 ], [ %14, %.lr.ph.i ]
  %.not14.i.not = icmp eq i64 %.010.lcssa.i, 0
  %spec.select = zext i1 %.not14.i.not to i32
  br label %put_value.exit.thread

put_value.exit.thread:                            ; preds = %put_value.exit, %8, %3, %6
  %.0 = phi i32 [ 0, %6 ], [ 0, %3 ], [ 1, %8 ], [ %spec.select, %put_value.exit ]
  call void @llvm.lifetime.end.p0(i64 8, ptr nonnull %4) #12
  ret i32 %.0
}